target datalayout = "e-m:e-p270:32:32-p271:32:32-p272:64:64-i64:64-i128:128-f80:128-n8:16:32:64-S128"
target triple = "x86_64-pc-linux-gnu"

%struct.AVFilterContext = type { ptr, ptr, ptr, ptr, ptr, i32, ptr, ptr, i32, ptr, ptr, i32, i32, ptr, ptr, ptr, ptr, i32, ptr, i32, i32 }
%struct.MIContext = type { ptr, %struct.AVMotionEstContext, %struct.AVRational, i32, i32, i32, i32, i32, i32, i32, [4 x %struct.Frame], [128 x %struct.Cluster], ptr, ptr, ptr, ptr, [3 x ptr], i64, i32, i32, i32, i32, i32, i32, i32, ptr, double, double, i32, i32, i32 }
%struct.AVMotionEstContext = type { ptr, ptr, i32, i32, i32, i32, i32, i32, i32, i32, i32, i32, i32, [2 x %struct.AVMotionEstPredictor], ptr }
%struct.AVMotionEstPredictor = type { [10 x [2 x i32]], i32 }
%struct.AVRational = type { i32, i32 }
%struct.Frame = type { ptr, ptr }
%struct.Cluster = type { [2 x i64], i32 }
%struct.Block = type { [2 x [2 x i16]], i32, i64, i32, ptr }

; Function Attrs: cold nounwind optsize uwtable
define internal void @uninit(ptr noundef %0) #0 {
  %2 = alloca ptr, align 8
  %3 = alloca ptr, align 8
  %4 = alloca i32, align 4
  %5 = alloca i32, align 4
  %6 = alloca ptr, align 8
  store ptr %0, ptr %2, align 8, !tbaa !4
  call void @llvm.lifetime.start.p0(i64 8, ptr %3) #12
  %7 = load ptr, ptr %2, align 8, !tbaa !4
  %8 = getelementptr inbounds nuw %struct.AVFilterContext, ptr %7, i32 0, i32 9
  %9 = load ptr, ptr %8, align 8, !tbaa !9
  store ptr %9, ptr %3, align 8, !tbaa !22
  call void @llvm.lifetime.start.p0(i64 4, ptr %4) #12
  call void @llvm.lifetime.start.p0(i64 4, ptr %5) #12
  %10 = load ptr, ptr %3, align 8, !tbaa !22
  %11 = getelementptr inbounds nuw %struct.MIContext, ptr %10, i32 0, i32 13
  call void @av_freep(ptr noundef %11)
  %12 = load ptr, ptr %3, align 8, !tbaa !22
  %13 = getelementptr inbounds nuw %struct.MIContext, ptr %12, i32 0, i32 14
  call void @av_freep(ptr noundef %13)
  %14 = load ptr, ptr %3, align 8, !tbaa !22
  %15 = getelementptr inbounds nuw %struct.MIContext, ptr %14, i32 0, i32 15
  call void @av_freep(ptr noundef %15)
  %16 = load ptr, ptr %3, align 8, !tbaa !22
  %17 = getelementptr inbounds nuw %struct.MIContext, ptr %16, i32 0, i32 12
  %18 = load ptr, ptr %17, align 8, !tbaa !24
  %19 = icmp ne ptr %18, null
  br i1 %19, label %20, label %38

20:                                               ; preds = %1
  store i32 0, ptr %5, align 4, !tbaa !34
  br label %21

21:                                               ; preds = %34, %20
  %22 = load i32, ptr %5, align 4, !tbaa !34
  %23 = load ptr, ptr %3, align 8, !tbaa !22
  %24 = getelementptr inbounds nuw %struct.MIContext, ptr %23, i32 0, i32 20
  %25 = load i32, ptr %24, align 8, !tbaa !35
  %26 = icmp slt i32 %22, %25
  br i1 %26, label %27, label %37

27:                                               ; preds = %21
  %28 = load ptr, ptr %3, align 8, !tbaa !22
  %29 = getelementptr inbounds nuw %struct.MIContext, ptr %28, i32 0, i32 12
  %30 = load ptr, ptr %29, align 8, !tbaa !24
  %31 = load i32, ptr %5, align 4, !tbaa !34
  %32 = sext i32 %31 to i64
  %33 = getelementptr inbounds %struct.Block, ptr %30, i64 %32
  call void @free_blocks(ptr noundef %33, i32 noundef 0) #13
  br label %34

34:                                               ; preds = %27
  %35 = load i32, ptr %5, align 4, !tbaa !34
  %36 = add nsw i32 %35, 1
  store i32 %36, ptr %5, align 4, !tbaa !34
  br label %21, !llvm.loop !36

37:                                               ; preds = %21
  br label %38

38:                                               ; preds = %37, %1
  %39 = load ptr, ptr %3, align 8, !tbaa !22
  %40 = getelementptr inbounds nuw %struct.MIContext, ptr %39, i32 0, i32 12
  call void @av_freep(ptr noundef %40)
  store i32 0, ptr %4, align 4, !tbaa !34
  br label %41

41:                                               ; preds = %54, %38
  %42 = load i32, ptr %4, align 4, !tbaa !34
  %43 = icmp slt i32 %42, 4
  br i1 %43, label %44, label %57

44:                                               ; preds = %41
  call void @llvm.lifetime.start.p0(i64 8, ptr %6) #12
  %45 = load ptr, ptr %3, align 8, !tbaa !22
  %46 = getelementptr inbounds nuw %struct.MIContext, ptr %45, i32 0, i32 10
  %47 = load i32, ptr %4, align 4, !tbaa !34
  %48 = sext i32 %47 to i64
  %49 = getelementptr inbounds [4 x %struct.Frame], ptr %46, i64 0, i64 %48
  store ptr %49, ptr %6, align 8, !tbaa !38
  %50 = load ptr, ptr %6, align 8, !tbaa !38
  %51 = getelementptr inbounds nuw %struct.Frame, ptr %50, i32 0, i32 1
  call void @av_freep(ptr noundef %51)
  %52 = load ptr, ptr %6, align 8, !tbaa !38
  %53 = getelementptr inbounds nuw %struct.Frame, ptr %52, i32 0, i32 0
  call void @av_frame_free(ptr noundef %53)
  call void @llvm.lifetime.end.p0(i64 8, ptr %6) #12
  br label %54

54:                                               ; preds = %44
  %55 = load i32, ptr %4, align 4, !tbaa !34
  %56 = add nsw i32 %55, 1
  store i32 %56, ptr %4, align 4, !tbaa !34
  br label %41, !llvm.loop !40

57:                                               ; preds = %41
  store i32 0, ptr %4, align 4, !tbaa !34
  br label %58

58:                                               ; preds = %67, %57
  %59 = load i32, ptr %4, align 4, !tbaa !34
  %60 = icmp slt i32 %59, 3
  br i1 %60, label %61, label %70

61:                                               ; preds = %58
  %62 = load ptr, ptr %3, align 8, !tbaa !22
  %63 = getelementptr inbounds nuw %struct.MIContext, ptr %62, i32 0, i32 16
  %64 = load i32, ptr %4, align 4, !tbaa !34
  %65 = sext i32 %64 to i64
  %66 = getelementptr inbounds [3 x ptr], ptr %63, i64 0, i64 %65
  call void @av_freep(ptr noundef %66)
  br label %67

67:                                               ; preds = %61
  %68 = load i32, ptr %4, align 4, !tbaa !34
  %69 = add nsw i32 %68, 1
  store i32 %69, ptr %4, align 4, !tbaa !34
  br label %58, !llvm.loop !41

70:                                               ; preds = %58
  call void @llvm.lifetime.end.p0(i64 4, ptr %5) #12
  call void @llvm.lifetime.end.p0(i64 4, ptr %4) #12
  call void @llvm.lifetime.end.p0(i64 8, ptr %3) #12
  ret void
}