; Function Attrs: cold nounwind optsize uwtable
define internal void @uninit(ptr noundef readonly captures(none) %0) #0 {
  %2 = getelementptr inbounds nuw i8, ptr %0, i64 72
  %3 = load ptr, ptr %2, align 8, !tbaa !4
  %4 = getelementptr inbounds nuw i8, ptr %3, i64 3432
  tail call void @av_freep(ptr noundef nonnull %4) #13
  %5 = getelementptr inbounds nuw i8, ptr %3, i64 3440
  tail call void @av_freep(ptr noundef nonnull %5) #13
  %6 = getelementptr inbounds nuw i8, ptr %3, i64 3448
  tail call void @av_freep(ptr noundef nonnull %6) #13
  %7 = getelementptr inbounds nuw i8, ptr %3, i64 3424
  %8 = load ptr, ptr %7, align 8, !tbaa !20
  %.not = icmp eq ptr %8, null
  br i1 %.not, label %.loopexit, label %.preheader21

.preheader21:                                     ; preds = %1
  %9 = getelementptr inbounds nuw i8, ptr %3, i64 3496
  %10 = load i32, ptr %9, align 8, !tbaa !30
  %11 = icmp sgt i32 %10, 0
  br i1 %11, label %.lr.ph, label %.loopexit

.lr.ph:                                           ; preds = %.preheader21, %.lr.ph
  %indvars.iv = phi i64 [ %indvars.iv.next, %.lr.ph ], [ 0, %.preheader21 ]
  %12 = load ptr, ptr %7, align 8, !tbaa !20
  %13 = getelementptr inbounds nuw %struct.Block, ptr %12, i64 %indvars.iv
  tail call fastcc void @free_blocks(ptr noundef %13, i32 noundef 0) #14
  %indvars.iv.next = add nuw nsw i64 %indvars.iv, 1
  %14 = load i32, ptr %9, align 8, !tbaa !30
  %15 = sext i32 %14 to i64
  %16 = icmp slt i64 %indvars.iv.next, %15
  br i1 %16, label %.lr.ph, label %.loopexit, !llvm.loop !31

.loopexit:                                        ; preds = %.lr.ph, %.preheader21, %1
  tail call void @av_freep(ptr noundef nonnull %7) #13
  %17 = getelementptr inbounds nuw i8, ptr %3, i64 288
  br label %19

.preheader:                                       ; preds = %19
  %18 = getelementptr inbounds nuw i8, ptr %3, i64 3456
  br label %22

19:                                               ; preds = %.loopexit, %19
  %indvars.iv26 = phi i64 [ 0, %.loopexit ], [ %indvars.iv.next27, %19 ]
  %20 = getelementptr inbounds nuw [4 x %struct.Frame], ptr %17, i64 0, i64 %indvars.iv26
  %21 = getelementptr inbounds nuw i8, ptr %20, i64 8
  tail call void @av_freep(ptr noundef nonnull %21) #13
  tail call void @av_frame_free(ptr noundef nonnull %20) #13
  %indvars.iv.next27 = add nuw nsw i64 %indvars.iv26, 1
  %exitcond.not = icmp eq i64 %indvars.iv.next27, 4
  br i1 %exitcond.not, label %.preheader, label %19, !llvm.loop !33

22:                                               ; preds = %.preheader, %22
  %indvars.iv29 = phi i64 [ 0, %.preheader ], [ %indvars.iv.next30, %22 ]
  %23 = getelementptr inbounds nuw [3 x ptr], ptr %18, i64 0, i64 %indvars.iv29
  tail call void @av_freep(ptr noundef nonnull %23) #13
  %indvars.iv.next30 = add nuw nsw i64 %indvars.iv29, 1
  %exitcond32.not = icmp eq i64 %indvars.iv.next30, 3
  br i1 %exitcond32.not, label %24, label %22, !llvm.loop !34

24:                                               ; preds = %22
  ret void
}